target datalayout = "e-m:e-p270:32:32-p271:32:32-p272:64:64-i64:64-i128:128-f80:128-n8:16:32:64-S128"
target triple = "x86_64-pc-linux-gnu"

%struct.getnameinfo_cache_t = type { %struct.sockaddr_storage, i64, ptr }
%struct.sockaddr_storage = type { i16, [118 x i8], i64 }
%struct.sockaddr_in = type { i16, i16, %struct.in_addr, [8 x i8] }
%struct.in_addr = type { i32 }
%struct.sockaddr_in6 = type { i16, i16, i32, %struct.in6_addr, i32 }
%struct.in6_addr = type { %union.anon }
%union.anon = type { [4 x i32] }

; Function Attrs: nounwind uwtable
define internal i32 @_name_cache_find(ptr noundef %0, ptr noundef %1) #0 {
  %3 = alloca i32, align 4
  %4 = alloca ptr, align 8
  %5 = alloca ptr, align 8
  %6 = alloca ptr, align 8
  %7 = alloca ptr, align 8
  %8 = alloca ptr, align 8
  %9 = alloca i32, align 4
  %10 = alloca ptr, align 8
  %11 = alloca ptr, align 8
  %12 = alloca ptr, align 8
  %13 = alloca ptr, align 8
  store ptr %0, ptr %4, align 8
  store ptr %1, ptr %5, align 8
  call void @llvm.lifetime.start.p0(i64 8, ptr %6) #9
  %14 = load ptr, ptr %4, align 8
  store ptr %14, ptr %6, align 8
  call void @llvm.lifetime.start.p0(i64 8, ptr %7) #9
  %15 = load ptr, ptr %6, align 8
  %16 = getelementptr inbounds nuw %struct.getnameinfo_cache_t, ptr %15, i32 0, i32 0
  store ptr %16, ptr %7, align 8
  call void @llvm.lifetime.start.p0(i64 8, ptr %8) #9
  %17 = load ptr, ptr %5, align 8
  store ptr %17, ptr %8, align 8
  %18 = load ptr, ptr %7, align 8
  %19 = getelementptr inbounds nuw %struct.sockaddr_storage, ptr %18, i32 0, i32 0
  %20 = load i16, ptr %19, align 8
  %21 = zext i16 %20 to i32
  %22 = load ptr, ptr %8, align 8
  %23 = getelementptr inbounds nuw %struct.sockaddr_storage, ptr %22, i32 0, i32 0
  %24 = load i16, ptr %23, align 8
  %25 = zext i16 %24 to i32
  %26 = icmp ne i32 %21, %25
  br i1 %26, label %27, label %28

27:                                               ; preds = %2
  store i32 0, ptr %3, align 4
  store i32 1, ptr %9, align 4
  br label %77

28:                                               ; preds = %2
  %29 = load ptr, ptr %7, align 8
  %30 = getelementptr inbounds nuw %struct.sockaddr_storage, ptr %29, i32 0, i32 0
  %31 = load i16, ptr %30, align 8
  %32 = zext i16 %31 to i32
  %33 = icmp eq i32 %32, 2
  br i1 %33, label %34, label %51

34:                                               ; preds = %28
  call void @llvm.lifetime.start.p0(i64 8, ptr %10) #9
  %35 = load ptr, ptr %7, align 8
  store ptr %35, ptr %10, align 8
  call void @llvm.lifetime.start.p0(i64 8, ptr %11) #9
  %36 = load ptr, ptr %8, align 8
  store ptr %36, ptr %11, align 8
  %37 = load ptr, ptr %10, align 8
  %38 = getelementptr inbounds nuw %struct.sockaddr_in, ptr %37, i32 0, i32 2
  %39 = getelementptr inbounds nuw %struct.in_addr, ptr %38, i32 0, i32 0
  %40 = load i32, ptr %39, align 4
  %41 = load ptr, ptr %11, align 8
  %42 = getelementptr inbounds nuw %struct.sockaddr_in, ptr %41, i32 0, i32 2
  %43 = getelementptr inbounds nuw %struct.in_addr, ptr %42, i32 0, i32 0
  %44 = load i32, ptr %43, align 4
  %45 = icmp ne i32 %40, %44
  br i1 %45, label %46, label %47

46:                                               ; preds = %34
  store i32 0, ptr %3, align 4
  store i32 1, ptr %9, align 4
  br label %48

47:                                               ; preds = %34
  store i32 0, ptr %9, align 4
  br label %48

48:                                               ; preds = %47, %46
  call void @llvm.lifetime.end.p0(i64 8, ptr %11) #9
  call void @llvm.lifetime.end.p0(i64 8, ptr %10) #9
  %49 = load i32, ptr %9, align 4
  switch i32 %49, label %77 [
    i32 0, label %50
  ]

50:                                               ; preds = %48
  br label %76

51:                                               ; preds = %28
  %52 = load ptr, ptr %7, align 8
  %53 = getelementptr inbounds nuw %struct.sockaddr_storage, ptr %52, i32 0, i32 0
  %54 = load i16, ptr %53, align 8
  %55 = zext i16 %54 to i32
  %56 = icmp eq i32 %55, 10
  br i1 %56, label %57, label %75

57:                                               ; preds = %51
  call void @llvm.lifetime.start.p0(i64 8, ptr %12) #9
  %58 = load ptr, ptr %7, align 8
  store ptr %58, ptr %12, align 8
  call void @llvm.lifetime.start.p0(i64 8, ptr %13) #9
  %59 = load ptr, ptr %8, align 8
  store ptr %59, ptr %13, align 8
  %60 = load ptr, ptr %12, align 8
  %61 = getelementptr inbounds nuw %struct.sockaddr_in6, ptr %60, i32 0, i32 3
  %62 = getelementptr inbounds nuw %struct.in6_addr, ptr %61, i32 0, i32 0
  %63 = getelementptr inbounds [16 x i8], ptr %62, i64 0, i64 0
  %64 = load ptr, ptr %13, align 8
  %65 = getelementptr inbounds nuw %struct.sockaddr_in6, ptr %64, i32 0, i32 3
  %66 = getelementptr inbounds nuw %struct.in6_addr, ptr %65, i32 0, i32 0
  %67 = getelementptr inbounds [16 x i8], ptr %66, i64 0, i64 0
  %68 = call i32 @memcmp(ptr noundef %63, ptr noundef %67, i64 noundef 16) #12
  %69 = icmp ne i32 %68, 0
  br i1 %69, label %70, label %71

70:                                               ; preds = %57
  store i32 0, ptr %3, align 4
  store i32 1, ptr %9, align 4
  br label %72

71:                                               ; preds = %57
  store i32 0, ptr %9, align 4
  br label %72

72:                                               ; preds = %71, %70
  call void @llvm.lifetime.end.p0(i64 8, ptr %13) #9
  call void @llvm.lifetime.end.p0(i64 8, ptr %12) #9
  %73 = load i32, ptr %9, align 4
  switch i32 %73, label %77 [
    i32 0, label %74
  ]

74:                                               ; preds = %72
  br label %75

75:                                               ; preds = %74, %51
  br label %76

76:                                               ; preds = %75, %50
  store i32 1, ptr %3, align 4
  store i32 1, ptr %9, align 4
  br label %77

77:                                               ; preds = %76, %72, %48, %27
  call void @llvm.lifetime.end.p0(i64 8, ptr %8) #9
  call void @llvm.lifetime.end.p0(i64 8, ptr %7) #9
  call void @llvm.lifetime.end.p0(i64 8, ptr %6) #9
  %78 = load i32, ptr %3, align 4
  ret i32 %78
}