; Function Attrs: mustprogress nofree nounwind willreturn memory(argmem: read) uwtable
define internal range(i32 0, 2) i32 @_name_cache_find(ptr noundef readonly captures(none) %0, ptr noundef readonly captures(none) %1) #10 {
  %3 = load i16, ptr %0, align 8
  %4 = load i16, ptr %1, align 8
  %.not = icmp eq i16 %3, %4
  br i1 %.not, label %5, label %15

5:                                                ; preds = %2
  switch i16 %3, label %14 [
    i16 2, label %6
    i16 10, label %11
  ]

6:                                                ; preds = %5
  %7 = getelementptr inbounds nuw i8, ptr %0, i64 4
  %8 = load i32, ptr %7, align 4
  %9 = getelementptr inbounds nuw i8, ptr %1, i64 4
  %10 = load i32, ptr %9, align 4
  %.not22 = icmp eq i32 %8, %10
  br i1 %.not22, label %14, label %15

11:                                               ; preds = %5
  %12 = getelementptr inbounds nuw i8, ptr %0, i64 8
  %13 = getelementptr inbounds nuw i8, ptr %1, i64 8
  %bcmp = tail call i32 @bcmp(ptr noundef nonnull dereferenceable(16) %12, ptr noundef nonnull dereferenceable(16) %13, i64 16)
  %.not21 = icmp eq i32 %bcmp, 0
  br i1 %.not21, label %14, label %15

14:                                               ; preds = %5, %11, %6
  br label %15

15:                                               ; preds = %2, %6, %11, %14
  %.0 = phi i32 [ 1, %14 ], [ 0, %6 ], [ 0, %11 ], [ 0, %2 ]
  ret i32 %.0
}